target datalayout = "e-m:e-p270:32:32-p271:32:32-p272:64:64-i64:64-i128:128-f80:128-n8:16:32:64-S128"
target triple = "x86_64-pc-linux-gnu"

%"class.LIEF::ELF::SymbolVersionRequirement" = type { %"class.LIEF::Object", %"class.std::vector", i16, %"class.std::__cxx11::basic_string" }
%"class.LIEF::Object" = type { ptr }
%"class.std::vector" = type { %"struct.std::_Vector_base" }
%"struct.std::_Vector_base" = type { %"struct.std::_Vector_base<std::unique_ptr<LIEF::ELF::SymbolVersionAuxRequirement>, std::allocator<std::unique_ptr<LIEF::ELF::SymbolVersionAuxRequirement>>>::_Vector_impl" }
%"struct.std::_Vector_base<std::unique_ptr<LIEF::ELF::SymbolVersionAuxRequirement>, std::allocator<std::unique_ptr<LIEF::ELF::SymbolVersionAuxRequirement>>>::_Vector_impl" = type { %"struct.std::_Vector_base<std::unique_ptr<LIEF::ELF::SymbolVersionAuxRequirement>, std::allocator<std::unique_ptr<LIEF::ELF::SymbolVersionAuxRequirement>>>::_Vector_impl_data" }
%"struct.std::_Vector_base<std::unique_ptr<LIEF::ELF::SymbolVersionAuxRequirement>, std::allocator<std::unique_ptr<LIEF::ELF::SymbolVersionAuxRequirement>>>::_Vector_impl_data" = type { ptr, ptr, ptr }
%"class.std::__cxx11::basic_string" = type { %"struct.std::__cxx11::basic_string<char>::_Alloc_hider", i64, %union.anon }
%"struct.std::__cxx11::basic_string<char>::_Alloc_hider" = type { ptr }
%union.anon = type { i64, [8 x i8] }
%"struct.LIEF::ELF::details::Elf32_Verneed" = type { i16, i16, i32, i32, i32 }

; Function Attrs: mustprogress nounwind uwtable
define linkonce_odr hidden void @_ZNSt15__new_allocatorISt10unique_ptrIN4LIEF3ELF27SymbolVersionAuxRequirementESt14default_deleteIS3_EEEC2Ev(ptr noundef nonnull align 1 dereferenceable(1) %0) unnamed_addr #2 comdat align 2 {
  %2 = alloca ptr, align 8
  store ptr %0, ptr %2, align 8
  ret void
}

; Function Attrs: mustprogress nounwind uwtable
define linkonce_odr hidden void @_ZNSt12_Vector_baseISt10unique_ptrIN4LIEF3ELF27SymbolVersionAuxRequirementESt14default_deleteIS3_EESaIS6_EE17_Vector_impl_dataC2Ev(ptr noundef nonnull align 8 dereferenceable(24) %0) unnamed_addr #2 comdat align 2 {
  %2 = alloca ptr, align 8
  store ptr %0, ptr %2, align 8
  %3 = load ptr, ptr %2, align 8
  %4 = getelementptr inbounds %"struct.std::_Vector_base<std::unique_ptr<LIEF::ELF::SymbolVersionAuxRequirement>, std::allocator<std::unique_ptr<LIEF::ELF::SymbolVersionAuxRequirement>>>::_Vector_impl_data", ptr %3, i32 0, i32 0
  store ptr null, ptr %4, align 8
  %5 = getelementptr inbounds %"struct.std::_Vector_base<std::unique_ptr<LIEF::ELF::SymbolVersionAuxRequirement>, std::allocator<std::unique_ptr<LIEF::ELF::SymbolVersionAuxRequirement>>>::_Vector_impl_data", ptr %3, i32 0, i32 1
  store ptr null, ptr %5, align 8
  %6 = getelementptr inbounds %"struct.std::_Vector_base<std::unique_ptr<LIEF::ELF::SymbolVersionAuxRequirement>, std::allocator<std::unique_ptr<LIEF::ELF::SymbolVersionAuxRequirement>>>::_Vector_impl_data", ptr %3, i32 0, i32 2
  store ptr null, ptr %6, align 8
  ret void
}

; Function Attrs: mustprogress nounwind uwtable
define linkonce_odr hidden void @_ZNSaISt10unique_ptrIN4LIEF3ELF27SymbolVersionAuxRequirementESt14default_deleteIS2_EEEC2Ev(ptr noundef nonnull align 1 dereferenceable(1) %0) unnamed_addr #2 comdat align 2 {
  %2 = alloca ptr, align 8
  store ptr %0, ptr %2, align 8
  %3 = load ptr, ptr %2, align 8
  call void @_ZNSt15__new_allocatorISt10unique_ptrIN4LIEF3ELF27SymbolVersionAuxRequirementESt14default_deleteIS3_EEEC2Ev(ptr noundef nonnull align 1 dereferenceable(1) %3) #9
  ret void
}

; Function Attrs: mustprogress nounwind uwtable
define linkonce_odr hidden void @_ZNSt12_Vector_baseISt10unique_ptrIN4LIEF3ELF27SymbolVersionAuxRequirementESt14default_deleteIS3_EESaIS6_EE12_Vector_implC2Ev(ptr noundef nonnull align 8 dereferenceable(24) %0) unnamed_addr #2 comdat align 2 {
  %2 = alloca ptr, align 8
  store ptr %0, ptr %2, align 8
  %3 = load ptr, ptr %2, align 8
  call void @_ZNSaISt10unique_ptrIN4LIEF3ELF27SymbolVersionAuxRequirementESt14default_deleteIS2_EEEC2Ev(ptr noundef nonnull align 1 dereferenceable(1) %3) #9
  call void @_ZNSt12_Vector_baseISt10unique_ptrIN4LIEF3ELF27SymbolVersionAuxRequirementESt14default_deleteIS3_EESaIS6_EE17_Vector_impl_dataC2Ev(ptr noundef nonnull align 8 dereferenceable(24) %3) #9
  ret void
}

; Function Attrs: mustprogress nounwind uwtable
define linkonce_odr hidden void @_ZNSt12_Vector_baseISt10unique_ptrIN4LIEF3ELF27SymbolVersionAuxRequirementESt14default_deleteIS3_EESaIS6_EEC2Ev(ptr noundef nonnull align 8 dereferenceable(24) %0) unnamed_addr #2 comdat align 2 {
  %2 = alloca ptr, align 8
  store ptr %0, ptr %2, align 8
  %3 = load ptr, ptr %2, align 8
  %4 = getelementptr inbounds %"struct.std::_Vector_base", ptr %3, i32 0, i32 0
  call void @_ZNSt12_Vector_baseISt10unique_ptrIN4LIEF3ELF27SymbolVersionAuxRequirementESt14default_deleteIS3_EESaIS6_EE12_Vector_implC2Ev(ptr noundef nonnull align 8 dereferenceable(24) %4) #9
  ret void
}

; Function Attrs: mustprogress nounwind uwtable
define linkonce_odr hidden void @_ZNSt6vectorISt10unique_ptrIN4LIEF3ELF27SymbolVersionAuxRequirementESt14default_deleteIS3_EESaIS6_EEC2Ev(ptr noundef nonnull align 8 dereferenceable(24) %0) unnamed_addr #2 comdat align 2 {
  %2 = alloca ptr, align 8
  store ptr %0, ptr %2, align 8
  %3 = load ptr, ptr %2, align 8
  call void @_ZNSt12_Vector_baseISt10unique_ptrIN4LIEF3ELF27SymbolVersionAuxRequirementESt14default_deleteIS3_EESaIS6_EEC2Ev(ptr noundef nonnull align 8 dereferenceable(24) %3) #9
  ret void
}

; Function Attrs: mustprogress uwtable
define void @_ZN4LIEF3ELF24SymbolVersionRequirementC2ERKNS0_7details13Elf32_VerneedE(ptr noundef nonnull align 8 dereferenceable(72) %0, ptr noundef nonnull align 1 dereferenceable(16) %1) unnamed_addr #0 align 2 {
  %3 = alloca ptr, align 8
  %4 = alloca ptr, align 8
  store ptr %0, ptr %3, align 8
  store ptr %1, ptr %4, align 8
  %5 = load ptr, ptr %3, align 8
  call void @_ZN4LIEF6ObjectC2Ev(ptr noundef nonnull align 8 dereferenceable(8) %5)
  store ptr getelementptr inbounds ({ [7 x ptr] }, ptr @_ZTVN4LIEF3ELF24SymbolVersionRequirementE, i32 0, i32 0, i32 2), ptr %5, align 8
  %6 = getelementptr inbounds %"class.LIEF::ELF::SymbolVersionRequirement", ptr %5, i32 0, i32 1
  call void @_ZNSt6vectorISt10unique_ptrIN4LIEF3ELF27SymbolVersionAuxRequirementESt14default_deleteIS3_EESaIS6_EEC2Ev(ptr noundef nonnull align 8 dereferenceable(24) %6) #9
  %7 = getelementptr inbounds %"class.LIEF::ELF::SymbolVersionRequirement", ptr %5, i32 0, i32 2
  %8 = load ptr, ptr %4, align 8
  %9 = getelementptr inbounds %"struct.LIEF::ELF::details::Elf32_Verneed", ptr %8, i32 0, i32 0
  %10 = load i16, ptr %9, align 1
  store i16 %10, ptr %7, align 8
  %11 = getelementptr inbounds %"class.LIEF::ELF::SymbolVersionRequirement", ptr %5, i32 0, i32 3
  call void @_ZNSt7__cxx1112basic_stringIcSt11char_traitsIcESaIcEEC1Ev(ptr noundef nonnull align 8 dereferenceable(32) %11) #9
  ret void
}