; Function Attrs: mustprogress uwtable
define void @_ZN4LIEF3ELF24SymbolVersionRequirementC2ERKNS0_7details13Elf32_VerneedE(ptr noundef nonnull align 8 dereferenceable(72) %0, ptr nocapture noundef nonnull readonly align 1 dereferenceable(16) %1) unnamed_addr #0 align 2 {
  tail call void @_ZN4LIEF6ObjectC2Ev(ptr noundef nonnull align 8 dereferenceable(8) %0)
  store ptr getelementptr inbounds ({ [7 x ptr] }, ptr @_ZTVN4LIEF3ELF24SymbolVersionRequirementE, i64 0, i32 0, i64 2), ptr %0, align 8
  %3 = getelementptr inbounds i8, ptr %0, i64 8
  tail call void @llvm.memset.p0.i64(ptr noundef nonnull align 8 dereferenceable(24) %3, i8 0, i64 24, i1 false)
  %4 = getelementptr inbounds i8, ptr %0, i64 32
  %5 = load i16, ptr %1, align 1
  store i16 %5, ptr %4, align 8
  %6 = getelementptr inbounds i8, ptr %0, i64 40
  tail call void @_ZNSt7__cxx1112basic_stringIcSt11char_traitsIcESaIcEEC1Ev(ptr noundef nonnull align 8 dereferenceable(32) %6) #10
  ret void
}